target datalayout = "e-m:e-p270:32:32-p271:32:32-p272:64:64-i64:64-i128:128-f80:128-n8:16:32:64-S128"
target triple = "x86_64-pc-linux-gnu"

%struct.config_generic = type { ptr, i32, i32, ptr, ptr, i32, i32, i32, i32, i32, i32, i32, i32, i32, ptr, ptr, %struct.dlist_node, %struct.slist_node, %struct.slist_node, ptr, ptr, i32 }
%struct.dlist_node = type { ptr, ptr }
%struct.slist_node = type { ptr }

@.str.96 = private unnamed_addr constant [6 x i8] c"%s=%s\00", align 1

; Function Attrs: inlinehint nounwind uwtable
define internal ptr @DatumGetPointer(i64 noundef %0) #10 {
  %2 = alloca i64, align 8
  store i64 %0, ptr %2, align 8
  %3 = load i64, ptr %2, align 8
  %4 = inttoptr i64 %3 to ptr
  ret ptr %4
}

; Function Attrs: inlinehint nounwind uwtable
define internal i64 @PointerGetDatum(ptr noundef %0) #10 {
  %2 = alloca ptr, align 8
  store ptr %0, ptr %2, align 8
  %3 = load ptr, ptr %2, align 8
  %4 = ptrtoint ptr %3 to i64
  ret i64 %4
}

; Function Attrs: nounwind uwtable
define dso_local ptr @GUCArrayAdd(ptr noundef %0, ptr noundef %1, ptr noundef %2) #0 {
  %4 = alloca ptr, align 8
  %5 = alloca ptr, align 8
  %6 = alloca ptr, align 8
  %7 = alloca ptr, align 8
  %8 = alloca i64, align 8
  %9 = alloca ptr, align 8
  %10 = alloca ptr, align 8
  %11 = alloca i32, align 4
  %12 = alloca i8, align 1
  %13 = alloca i32, align 4
  %14 = alloca i64, align 8
  %15 = alloca ptr, align 8
  %16 = alloca i32, align 4
  store ptr %0, ptr %4, align 8
  store ptr %1, ptr %5, align 8
  store ptr %2, ptr %6, align 8
  call void @llvm.lifetime.start.p0(i64 8, ptr %7) #16
  call void @llvm.lifetime.start.p0(i64 8, ptr %8) #16
  call void @llvm.lifetime.start.p0(i64 8, ptr %9) #16
  call void @llvm.lifetime.start.p0(i64 8, ptr %10) #16
  %17 = load ptr, ptr %5, align 8
  %18 = load ptr, ptr %6, align 8
  %19 = call zeroext i1 @validate_option_array_item(ptr noundef %17, ptr noundef %18, i1 noundef zeroext false)
  %20 = load ptr, ptr %5, align 8
  %21 = call ptr @find_option(ptr noundef %20, i1 noundef zeroext false, i1 noundef zeroext true, i32 noundef 19)
  store ptr %21, ptr %7, align 8
  %22 = load ptr, ptr %7, align 8
  %23 = icmp ne ptr %22, null
  br i1 %23, label %24, label %28

24:                                               ; preds = %3
  %25 = load ptr, ptr %7, align 8
  %26 = getelementptr inbounds nuw %struct.config_generic, ptr %25, i32 0, i32 0
  %27 = load ptr, ptr %26, align 8
  store ptr %27, ptr %5, align 8
  br label %28

28:                                               ; preds = %24, %3
  %29 = load ptr, ptr %5, align 8
  %30 = load ptr, ptr %6, align 8
  %31 = call ptr (ptr, ...) @psprintf(ptr noundef @.str.96, ptr noundef %29, ptr noundef %30)
  store ptr %31, ptr %9, align 8
  %32 = load ptr, ptr %9, align 8
  %33 = call ptr @cstring_to_text(ptr noundef %32)
  %34 = call i64 @PointerGetDatum(ptr noundef %33)
  store i64 %34, ptr %8, align 8
  %35 = load ptr, ptr %4, align 8
  %36 = icmp ne ptr %35, null
  br i1 %36, label %37, label %80

37:                                               ; preds = %28
  call void @llvm.lifetime.start.p0(i64 4, ptr %11) #16
  call void @llvm.lifetime.start.p0(i64 1, ptr %12) #16
  call void @llvm.lifetime.start.p0(i64 4, ptr %13) #16
  %38 = load ptr, ptr %4, align 8
  %39 = getelementptr inbounds nuw i8, ptr %38, i64 16
  %40 = getelementptr inbounds i32, ptr %39, i64 0
  %41 = load i32, ptr %40, align 4
  %42 = add i32 %41, 1
  store i32 %42, ptr %11, align 4
  store i32 1, ptr %13, align 4
  br label %43

43:                                               ; preds = %73, %37
  %44 = load i32, ptr %13, align 4
  %45 = load ptr, ptr %4, align 8
  %46 = getelementptr inbounds nuw i8, ptr %45, i64 16
  %47 = getelementptr inbounds i32, ptr %46, i64 0
  %48 = load i32, ptr %47, align 4
  %49 = icmp sle i32 %44, %48
  br i1 %49, label %50, label %76

50:                                               ; preds = %43
  call void @llvm.lifetime.start.p0(i64 8, ptr %14) #16
  call void @llvm.lifetime.start.p0(i64 8, ptr %15) #16
  %51 = load ptr, ptr %4, align 8
  %52 = call i64 @array_ref(ptr noundef %51, i32 noundef 1, ptr noundef %13, i32 noundef -1, i32 noundef -1, i1 noundef zeroext false, i8 noundef signext 105, ptr noundef %12)
  store i64 %52, ptr %14, align 8
  %53 = load i8, ptr %12, align 1, !range !4, !noundef !5
  %54 = trunc i8 %53 to i1
  br i1 %54, label %55, label %56

55:                                               ; preds = %50
  store i32 4, ptr %16, align 4
  br label %70

56:                                               ; preds = %50
  %57 = load i64, ptr %14, align 8
  %58 = call ptr @DatumGetPointer(i64 noundef %57)
  %59 = call ptr @text_to_cstring(ptr noundef %58)
  store ptr %59, ptr %15, align 8
  %60 = load ptr, ptr %15, align 8
  %61 = load ptr, ptr %9, align 8
  %62 = load ptr, ptr %5, align 8
  %63 = call i64 @strlen(ptr noundef %62) #17
  %64 = add i64 %63, 1
  %65 = call i32 @strncmp(ptr noundef %60, ptr noundef %61, i64 noundef %64) #17
  %66 = icmp eq i32 %65, 0
  br i1 %66, label %67, label %69

67:                                               ; preds = %56
  %68 = load i32, ptr %13, align 4
  store i32 %68, ptr %11, align 4
  store i32 2, ptr %16, align 4
  br label %70

69:                                               ; preds = %56
  store i32 0, ptr %16, align 4
  br label %70

70:                                               ; preds = %69, %67, %55
  call void @llvm.lifetime.end.p0(i64 8, ptr %15) #16
  call void @llvm.lifetime.end.p0(i64 8, ptr %14) #16
  %71 = load i32, ptr %16, align 4
  switch i32 %71, label %84 [
    i32 0, label %72
    i32 4, label %73
    i32 2, label %76
  ]

72:                                               ; preds = %70
  br label %73

73:                                               ; preds = %72, %70
  %74 = load i32, ptr %13, align 4
  %75 = add i32 %74, 1
  store i32 %75, ptr %13, align 4
  br label %43, !llvm.loop !67

76:                                               ; preds = %70, %43
  %77 = load ptr, ptr %4, align 8
  %78 = load i64, ptr %8, align 8
  %79 = call ptr @array_set(ptr noundef %77, i32 noundef 1, ptr noundef %11, i64 noundef %78, i1 noundef zeroext false, i32 noundef -1, i32 noundef -1, i1 noundef zeroext false, i8 noundef signext 105)
  store ptr %79, ptr %10, align 8
  call void @llvm.lifetime.end.p0(i64 4, ptr %13) #16
  call void @llvm.lifetime.end.p0(i64 1, ptr %12) #16
  call void @llvm.lifetime.end.p0(i64 4, ptr %11) #16
  br label %82

80:                                               ; preds = %28
  %81 = call ptr @construct_array_builtin(ptr noundef %8, i32 noundef 1, i32 noundef 25)
  store ptr %81, ptr %10, align 8
  br label %82

82:                                               ; preds = %80, %76
  %83 = load ptr, ptr %10, align 8
  store i32 1, ptr %16, align 4
  call void @llvm.lifetime.end.p0(i64 8, ptr %10) #16
  call void @llvm.lifetime.end.p0(i64 8, ptr %9) #16
  call void @llvm.lifetime.end.p0(i64 8, ptr %8) #16
  call void @llvm.lifetime.end.p0(i64 8, ptr %7) #16
  ret ptr %83

84:                                               ; preds = %70
  unreachable
}