; Function Attrs: nounwind uwtable
define dso_local ptr @GUCArrayAdd(ptr noundef %0, ptr noundef %1, ptr noundef %2) local_unnamed_addr #0 {
  %4 = alloca i64, align 8
  %5 = alloca i32, align 4
  %6 = alloca i8, align 1
  %7 = alloca i32, align 4
  call void @llvm.lifetime.start.p0(i64 8, ptr nonnull %4) #29
  %8 = tail call fastcc zeroext i1 @validate_option_array_item(ptr noundef %1, ptr noundef %2, i1 noundef zeroext false)
  %9 = tail call ptr @find_option(ptr noundef %1, i1 noundef zeroext false, i1 noundef zeroext true, i32 noundef 19)
  %.not = icmp eq ptr %9, null
  br i1 %.not, label %12, label %10

10:                                               ; preds = %3
  %11 = load ptr, ptr %9, align 8
  br label %12

12:                                               ; preds = %10, %3
  %.018 = phi ptr [ %11, %10 ], [ %1, %3 ]
  %13 = tail call ptr (ptr, ...) @psprintf(ptr noundef nonnull @.str.96, ptr noundef %.018, ptr noundef %2) #29
  %14 = tail call ptr @cstring_to_text(ptr noundef %13) #29
  %15 = ptrtoint ptr %14 to i64
  store i64 %15, ptr %4, align 8
  %.not22 = icmp eq ptr %0, null
  br i1 %.not22, label %37, label %16

16:                                               ; preds = %12
  call void @llvm.lifetime.start.p0(i64 4, ptr nonnull %5) #29
  call void @llvm.lifetime.start.p0(i64 1, ptr nonnull %6) #29
  call void @llvm.lifetime.start.p0(i64 4, ptr nonnull %7) #29
  %17 = getelementptr inbounds nuw i8, ptr %0, i64 16
  %18 = load i32, ptr %17, align 4
  %19 = add i32 %18, 1
  store i32 %19, ptr %5, align 4
  store i32 1, ptr %7, align 4
  %.not2327 = icmp slt i32 %18, 1
  br i1 %.not2327, label %.loopexit, label %.lr.ph

.lr.ph:                                           ; preds = %16, %32
  %20 = call i64 @array_ref(ptr noundef nonnull %0, i32 noundef 1, ptr noundef nonnull %7, i32 noundef -1, i32 noundef -1, i1 noundef zeroext false, i8 noundef signext 105, ptr noundef nonnull %6) #29
  %21 = load i8, ptr %6, align 1, !range !4, !noundef !5
  %22 = trunc nuw i8 %21 to i1
  br i1 %22, label %32, label %23

23:                                               ; preds = %.lr.ph
  %24 = inttoptr i64 %20 to ptr
  %25 = call ptr @text_to_cstring(ptr noundef %24) #29
  %26 = call i64 @strlen(ptr noundef nonnull dereferenceable(1) %.018) #30
  %27 = add i64 %26, 1
  %28 = call i32 @strncmp(ptr noundef %25, ptr noundef %13, i64 noundef %27) #30
  %29 = icmp eq i32 %28, 0
  br i1 %29, label %30, label %32

30:                                               ; preds = %23
  %31 = load i32, ptr %7, align 4
  store i32 %31, ptr %5, align 4
  br label %.loopexit

32:                                               ; preds = %.lr.ph, %23
  %33 = load i32, ptr %7, align 4
  %34 = add i32 %33, 1
  store i32 %34, ptr %7, align 4
  %35 = load i32, ptr %17, align 4
  %.not23 = icmp sgt i32 %34, %35
  br i1 %.not23, label %.loopexit, label %.lr.ph, !llvm.loop !63

.loopexit:                                        ; preds = %32, %16, %30
  %36 = call ptr @array_set(ptr noundef nonnull %0, i32 noundef 1, ptr noundef nonnull %5, i64 noundef %15, i1 noundef zeroext false, i32 noundef -1, i32 noundef -1, i1 noundef zeroext false, i8 noundef signext 105) #29
  call void @llvm.lifetime.end.p0(i64 4, ptr nonnull %7) #29
  call void @llvm.lifetime.end.p0(i64 1, ptr nonnull %6) #29
  call void @llvm.lifetime.end.p0(i64 4, ptr nonnull %5) #29
  br label %39

37:                                               ; preds = %12
  %38 = call ptr @construct_array_builtin(ptr noundef nonnull %4, i32 noundef 1, i32 noundef 25) #29
  br label %39

39:                                               ; preds = %37, %.loopexit
  %.019 = phi ptr [ %36, %.loopexit ], [ %38, %37 ]
  call void @llvm.lifetime.end.p0(i64 8, ptr nonnull %4) #29
  ret ptr %.019
}